EXPORTS
	??0apartment@application@@QEAA@Uwinrt_t@1@@Z
	??0apartment@application@@QEAA@Uwinrt_t@1@Umta_t@1@@Z
	??0apartment@application@@QEAA@Ucom_t@1@@Z
	??0apartment@application@@QEAA@Ucom_t@1@Umta_t@1@@Z
	??0apartment@application@@QEAA@Uole_t@1@@Z
	??1apartment@application@@QEAA@XZ
	?increment_implicit_mta@apartment@application@@QEAAXXZ
	?decrement_implicit_mta@apartment@application@@QEAAXXZ
	?outstanding_mta_count@apartment@application@@QEBAIXZ
	?init_failure_code@apartment@application@@QEBAIXZ
	?is_aparmtent_init@apartment@application@@SA_NXZ
	?is_sta_apartment@apartment@application@@SA_NXZ
	?is_nta_apartment@apartment@application@@SA_NXZ
	?is_implicit_mta@apartment@application@@SA_NXZ
	?is_winrt_apartment@apartment@application@@QEBA_NXZ
	?is_ole_apartment@apartment@application@@QEBA_NXZ

	??0application@0@QEAA@XZ
	??1application@0@QEAA@XZ
	??0application@0@QEAA@AEBV00@@Z
	??0application@0@QEAA@$$QEAV00@@Z
	??4application@0@QEAAAEAV00@AEBV00@@Z
	??4application@0@QEAAAEAV00@$$QEAV00@@Z
	?try_get_current_instance@application@1@SA?AV?$optional@Vapplication@1@@std@@XZ
	?make_thread_gui@application@1@SAXXZ
	?set_explicit_app_user_model_id@application@1@SAXAEBV?$basic_string_view@_WU?$char_traits@_W@std@@@std@@@Z
	?get_explicit_app_user_model_id@application@1@SA?AV?$basic_string@_WU?$char_traits@_W@std@@V?$allocator@_W@2@@std@@XZ
	?process_has_explicit_app_user_model_id@application@1@SA_NXZ
	?get_application_thread_id@application@1@QEBAIXZ
	?get_for_thread@application@1@QEBA?AVapplication_thread@1@XZ
	?is_main_thread@application@1@QEBA_NXZ
	?is_ui_thread@application@1@QEBA_NI@Z
	?did_initialisation_fail@application@1@QEBA_NXZ
	?get_failure_information@application@1@QEBA?AUinit_failure_information@1@XZ

	??0application_system_dispatcher_queue@application@@QEAA@XZ
	??0application_system_dispatcher_queue@application@@QEAA@AEBV01@@Z
	??0application_system_dispatcher_queue@application@@QEAA@$$QEAV01@@Z
	??1application_system_dispatcher_queue@application@@QEAA@XZ
	?thread_has_dispatcher_queue@application_system_dispatcher_queue@application@@QEBA_NXZ
	?thread_has_uncontrolled_dispatcher_queue@application_system_dispatcher_queue@application@@QEBA_NXZ
	?create_dispatcher_queue_on_thread@application_system_dispatcher_queue@application@@QEAA_NXZ
	?create_background_dispatcher_queue@application_system_dispatcher_queue@application@@QEAAHXZ
	?destroy_thread_dispatcher_queue@application_system_dispatcher_queue@application@@QEAAXXZ
	?destroy_background_dispatcher_queue@application_system_dispatcher_queue@application@@QEAAXH@Z
	??0application_winappsdk_dispatcher_queue@application@@QEAA@XZ
	??0application_winappsdk_dispatcher_queue@application@@QEAA@AEBV01@@Z
	??0application_winappsdk_dispatcher_queue@application@@QEAA@$$QEAV01@@Z
	??1application_winappsdk_dispatcher_queue@application@@QEAA@XZ
	?dispatcher_queue_available@application_winappsdk_dispatcher_queue@application@@SA_NXZ
	?thread_has_dispatcher_queue@application_winappsdk_dispatcher_queue@application@@QEBA_NXZ
	?thread_has_uncontrolled_dispatcher_queue@application_winappsdk_dispatcher_queue@application@@QEBA_NXZ
	?create_dispatcher_queue_on_thread@application_winappsdk_dispatcher_queue@application@@QEAA_NXZ
	?create_background_dispatcher_queue@application_winappsdk_dispatcher_queue@application@@QEAAHXZ
	?destroy_thread_dispatcher_queue@application_winappsdk_dispatcher_queue@application@@QEAAXXZ
	?destroy_background_dispatcher_queue@application_winappsdk_dispatcher_queue@application@@QEAAXH@Z
	?get_thread_dispatcher_queue@application_system_dispatcher_queue_access@abi@application@@SA?AV?$ComPtr@UIDispatcherQueue@System@Windows@ABI@@@WRL@Microsoft@@XZ
	?get_background_dispatcher_queue@application_system_dispatcher_queue_access@abi@application@@SA?AV?$ComPtr@UIDispatcherQueue@System@Windows@ABI@@@WRL@Microsoft@@H@Z
	?get_thread_dispatcher_queue@application_winappsdk_dispatcher_queue_access@abi@application@@SA?AV?$ComPtr@UIDispatcherQueue@Dispatching@UI@Microsoft@ABI@@@WRL@Microsoft@@XZ
	?get_background_dispatcher_queue@application_winappsdk_dispatcher_queue_access@abi@application@@SA?AV?$ComPtr@UIDispatcherQueue@Dispatching@UI@Microsoft@ABI@@@WRL@Microsoft@@H@Z

	?is_windows_10_or_greater@helper@application@@YA_NXZ
	?is_windows_11_or_greater@helper@application@@YA_NXZ
	?get_windows_10_build@helper@application@@YAIXZ
	?is_at_least_windows_10_build@helper@application@@YA_NI@Z
	?is_windows_10_build@helper@application@@YA_NI@Z
	?is_build_win10_range@helper@application@@YA_NI@Z
	?is_build_known_win11_range@helper@application@@YA_NI@Z
	?allocate_console_for_ui_process@helper@application@@YAXXZ
	?api_is_debugger_present@helper@application@@YA_NXZ
	?is_file_translated@helper@application@@YA_NPEAU_iobuf@@@Z
	?is_stdout_translated@helper@application@@YA_NXZ
	?is_stderr_translated@helper@application@@YA_NXZ
	?no_cache_is_file_translated@helper@application@@YA_NPEAU_iobuf@@@Z
	?no_cache_is_stdout_translated@helper@application@@YA_NXZ
	?no_cache_is_stderr_translated@helper@application@@YA_NXZ
	?write_string_to_debugger@helper@application@@YAXAEBV?$basic_string@DU?$char_traits@D@std@@V?$allocator@D@2@@std@@@Z
	?write_string_to_debugger@helper@application@@YAXAEBV?$basic_string_view@DU?$char_traits@D@std@@@std@@@Z
	?write_string_to_debugger@helper@application@@YAXAEBV?$basic_string@_WU?$char_traits@_W@std@@V?$allocator@_W@2@@std@@@Z
	?write_string_to_debugger@helper@application@@YAXAEBV?$basic_string_view@_WU?$char_traits@_W@std@@@std@@@Z
	?write_string_to_stream@helper@application@@YAHPEAU_iobuf@@AEBV?$basic_string@DU?$char_traits@D@std@@V?$allocator@D@2@@std@@@Z
	?write_string_to_stream@helper@application@@YAHPEAU_iobuf@@AEBV?$basic_string_view@DU?$char_traits@D@std@@@std@@@Z
	?write_string_to_stream@helper@application@@YAHPEAU_iobuf@@AEBV?$basic_string@_WU?$char_traits@_W@std@@V?$allocator@_W@2@@std@@@Z
	?write_string_to_stream@helper@application@@YAHPEAU_iobuf@@AEBV?$basic_string_view@_WU?$char_traits@_W@std@@@std@@@Z
	?write_string_to_stdout@helper@application@@YAHAEBV?$basic_string@DU?$char_traits@D@std@@V?$allocator@D@2@@std@@@Z
	?write_string_to_stdout@helper@application@@YAHAEBV?$basic_string_view@DU?$char_traits@D@std@@@std@@@Z
	?write_string_to_stdout@helper@application@@YAHAEBV?$basic_string@_WU?$char_traits@_W@std@@V?$allocator@_W@2@@std@@@Z
	?write_string_to_stdout@helper@application@@YAHAEBV?$basic_string_view@_WU?$char_traits@_W@std@@@std@@@Z
	?write_string_to_stderr@helper@application@@YAHAEBV?$basic_string@DU?$char_traits@D@std@@V?$allocator@D@2@@std@@@Z
	?write_string_to_stderr@helper@application@@YAHAEBV?$basic_string_view@DU?$char_traits@D@std@@@std@@@Z
	?write_string_to_stderr@helper@application@@YAHAEBV?$basic_string@_WU?$char_traits@_W@std@@V?$allocator@_W@2@@std@@@Z
	?write_string_to_stderr@helper@application@@YAHAEBV?$basic_string_view@_WU?$char_traits@_W@std@@@std@@@Z

	?is_application_packaged@application@@YA_NXZ
	?application_has_external_location@application@@YA_NXZ
	?application_path@application@@YA?AVpath@filesystem@std@@XZ
	?application_package_path@application@@YA?AVpath@filesystem@std@@XZ
	?application_external_content_path@application@@YA?AVpath@filesystem@std@@XZ
	?application_package_full_name@application@@YA?AV?$basic_string@_WU?$char_traits@_W@std@@V?$allocator@_W@2@@std@@XZ
	?application_package_family_name@application@@YA?AV?$basic_string@_WU?$char_traits@_W@std@@V?$allocator@_W@2@@std@@XZ
	?application_app_container@application@@YA_NXZ
	?application_package_app_aumid@application@@YA?AV?$basic_string@_WU?$char_traits@_W@std@@V?$allocator@_W@2@@std@@XZ
	?application_package_app_aumid@application@@YA?AV?$basic_string@_WU?$char_traits@_W@std@@V?$allocator@_W@2@@std@@I@Z
	?application_package_get_applist_count@application@@YAIXZ

	??1application_thread@application@@QEAA@XZ
	??0application_thread@application@@QEAA@AEBV01@@Z
	??0application_thread@application@@QEAA@$$QEAV01@@Z
	??4application_thread@application@@QEAAAEAV01@AEBV01@@Z
	??4application_thread@application@@QEAAAEAV01@$$QEAV01@@Z
	?set_message_pump_to_ansi@application_thread@application@@QEAAXXZ
	?set_message_pump_to_unicode@application_thread@application@@QEAAXXZ
	?is_message_pump_ansi@application_thread@application@@QEBA_NXZ
	?is_message_pump_unicode@application_thread@application@@QEBA_NXZ
	?run_message_pump@application_thread@application@@QEBAHXZ
	?run_game_message_pump@application_thread@application@@QEBAHXZ
	?clear_message_queue@application_thread@application@@QEBAXXZ
	?exit_message_pump@application_thread@application@@QEBAXH@Z
	?add_pump_simple_callback@application_thread@application@@QEAAIVpump_callback_wrapper@2@@Z
	?add_pump_window_callback@application_thread@application@@QEAAIPEAUHWND__@@I@Z
	?clear_pump_callbacks@application_thread@application@@QEAAXXZ
	?remove_pump_callback@application_thread@application@@QEAAXI@Z
	?add_pump_work_callback@application_thread@application@@QEAAXVwork_callback_wrapper@2@@Z
	?remove_pump_work_callback@application_thread@application@@QEAAXXZ

	?set_property_a@windowing@@YA_NPEAUHWND__@@W4prop_type@1@PEAX@Z
	?get_property_a@windowing@@YAPEAXPEAUHWND__@@W4prop_type@1@@Z
	?remove_property_a@windowing@@YAPEAXPEAUHWND__@@W4prop_type@1@@Z
	?set_property_w@windowing@@YA_NPEAUHWND__@@W4prop_type@1@PEAX@Z
	?get_property_w@windowing@@YAPEAXPEAUHWND__@@W4prop_type@1@@Z
	?remove_property_w@windowing@@YAPEAXPEAUHWND__@@W4prop_type@1@@Z
	?get_handle@window_base@windowing@@QEBAPEAUHWND__@@XZ
	?get_instance@window_base@windowing@@QEBAPEAUHINSTANCE__@@XZ
	?get_thread_id@window_base@windowing@@QEBAIXZ
	?get_dpi@window_base@windowing@@QEBAIXZ
	?get_scale@window_base@windowing@@QEBAMXZ
	?is_window_dpi_aware@window_base@windowing@@QEBA_NXZ
	?is_window_rtl@window_base@windowing@@QEBA_NXZ
	?is_window_unicode@window_base@windowing@@QEBA_NXZ
	?is_active@window_base@windowing@@QEBA_NXZ
	?is_visible@window_base@windowing@@QEBA_NXZ
	?is_enabled@window_base@windowing@@QEBA_NXZ
	?is_minimised@window_base@windowing@@QEBA_NXZ
	?is_maximised@window_base@windowing@@QEBA_NXZ
	?is_arranged@window_base@windowing@@QEBA_NXZ
	?show_window_cmd@window_base@windowing@@QEAA_NH@Z
	?show_window_default@window_base@windowing@@QEAA_NXZ
	?show_window@window_base@windowing@@QEAA_N_N@Z
	?show_window_minimised@window_base@windowing@@QEAA_N_N@Z
	?show_window_maximised@window_base@windowing@@QEAA_NXZ
	?minimise_window@window_base@windowing@@QEAA_NXZ
	?maximise_window@window_base@windowing@@QEAA_NXZ
	?restore_window@window_base@windowing@@QEAA_NXZ
	?hide_window@window_base@windowing@@QEAA_NXZ
	?enable_window@window_base@windowing@@QEAA_NXZ
	?disable_window@window_base@windowing@@QEAA_NXZ
	?update_window@window_base@windowing@@QEAAXXZ
	?redraw_window@window_base@windowing@@QEAAXV?$optional@UtagRECT@@@std@@PEAUHRGN__@@W4redraw_window_flags@2@@Z
	?get_parent@window_base@windowing@@QEBAPEAUHWND__@@XZ
	?get_size@window_base@windowing@@QEBA?AUtagSIZE@@XZ
	?get_client_size@window_base@windowing@@QEBA?AUtagSIZE@@XZ
	?get_position@window_base@windowing@@QEBA?AUtagPOINT@@XZ
	?set_size@window_base@windowing@@QEAAXAEBUtagSIZE@@@Z
	?set_client_size@window_base@windowing@@QEAAXAEBUtagSIZE@@@Z
	?set_position@window_base@windowing@@QEAAXAEBUtagPOINT@@@Z
	?set_size_position@window_base@windowing@@QEAAXAEBUtagPOINT@@AEBUtagSIZE@@@Z
	?set_z_order_top@window_base@windowing@@QEAAXXZ
	?set_z_order_bottom@window_base@windowing@@QEAAXXZ
	?set_z_order_after@window_base@windowing@@QEAAXPEAUHWND__@@@Z
	?set_window_aumid_from_process_aumid@window_base@windowing@@QEAAXXZ
	?set_window_aumid@window_base@windowing@@QEAAXAEBV?$basic_string_view@DU?$char_traits@D@std@@@std@@@Z
	?set_window_aumid@window_base@windowing@@QEAAXAEBV?$basic_string_view@_WU?$char_traits@_W@std@@@std@@@Z
	?get_window_aumid_a@window_base@windowing@@QEBA?AV?$basic_string@DU?$char_traits@D@std@@V?$allocator@D@2@@std@@XZ
	?get_window_aumid_w@window_base@windowing@@QEBA?AV?$basic_string@_WU?$char_traits@_W@std@@V?$allocator@_W@2@@std@@XZ
	?window_has_aumid@window_base@windowing@@QEBA_NXZ
	?register_power_notification@window_base@windowing@@QEAAXW4power_notify_type@2@@Z
	?unregister_power_notification@window_base@windowing@@QEAAXW4power_notify_type@2@@Z
	?get_register_interface@window_base@windowing@@QEBAAEAUregister_callback@2@XZ
	?get_window_message_callback@window_base@windowing@@SAAEAUmessage_callback@2@PEAUHWND__@@I@Z 
	?has_window_message_callback@window_base@windowing@@SA_NPEAUHWND__@@I@Z
	??0window_base@windowing@@IEAA@PEAUHINSTANCE__@@@Z
	??1window_base@windowing@@IEAA@XZ
	?notify_window_close@window_base@windowing@@IEAAXXZ
	?set_window_info@window_base@windowing@@IEAAXPEAUHWND__@@I_N@Z
	?cleanup_window_info@window_base@windowing@@IEAAXXZ
	?set_dpi@window_base@windowing@@IEAAXI@Z
	?has_associated_window@window_base@windowing@@IEBA_NXZ
	?add_message_callback@window_base@windowing@@IEAA_NAEBV?$shared_ptr@Umessage_callback@windowing@@@std@@I@Z
	?remove_message_callback@window_base@windowing@@IEAAXI@Z
	?clear_message_callbacks@window_base@windowing@@IEAAXXZ
	?is_class_registered@window_base@windowing@@IEBA_NAEBV?$basic_string_view@DU?$char_traits@D@std@@@std@@@Z
	?is_class_registered@window_base@windowing@@IEBA_NAEBV?$basic_string_view@_WU?$char_traits@_W@std@@@std@@@Z
	?register_class@window_base@windowing@@IEAA_NAEBV?$basic_string_view@DU?$char_traits@D@std@@@std@@0HHP6A_JPEAUHWND__@@I_K_J@ZPEAUHBRUSH__@@PEAUHICON__@@66@Z
	?register_class@window_base@windowing@@IEAA_NAEBV?$basic_string_view@_WU?$char_traits@_W@std@@@std@@0HHP6A_JPEAUHWND__@@I_K_J@ZPEAUHBRUSH__@@PEAUHICON__@@66@Z
	?create_window@window_base@windowing@@IEAAPEAUHWND__@@IIAEBV?$basic_string_view@DU?$char_traits@D@std@@@std@@0AEBUtagPOINT@@AEBUtagSIZE@@PEAU3@PEAUHMENU__@@PEAX@Z
	?create_window@window_base@windowing@@IEAAPEAUHWND__@@IIAEBV?$basic_string_view@_WU?$char_traits@_W@std@@@std@@0AEBUtagPOINT@@AEBUtagSIZE@@PEAU3@PEAUHMENU__@@PEAX@Z
	?set_property@window_base@windowing@@IEAA_NW4prop_type@2@PEAX@Z
	?get_property@window_base@windowing@@IEAAPEAXW4prop_type@2@@Z
	?remove_property@window_base@windowing@@IEAAPEAXW4prop_type@2@@Z
