EXPORTS
	?is_class_registered@windowing@window_base@@YAGPAUHINSTANCE__@@ABV?$basic_string_view@DU?$char_traits@D@std@@@std@@@Z
	?is_class_registered@windowing@window_base@@YAGPAUHINSTANCE__@@ABV?$basic_string_view@_WU?$char_traits@_W@std@@@std@@@Z
	?register_class@windowing@window_base@@YAGIABV?$basic_string_view@DU?$char_traits@D@std@@@std@@0HHP6GJPAUHWND__@@IIJ@ZPAUHINSTANCE__@@PAUHBRUSH__@@PAUHICON__@@55@Z
	?register_class@windowing@window_base@@YAGIABV?$basic_string_view@_WU?$char_traits@_W@std@@@std@@0HHP6GJPAUHWND__@@IIJ@ZPAUHINSTANCE__@@PAUHBRUSH__@@PAUHICON__@@55@Z
	?register_class@windowing@window_base@@YAGABUtagWNDCLASSEXA@@@Z
	?register_class@windowing@window_base@@YAGABUtagWNDCLASSEXW@@@Z

	?WndSetWindowsHookEx@window_traits_a@windowing@window_base@@SAPAUHHOOK__@@HP6GJHIJ@ZPAUHINSTANCE__@@K@Z
	?WndDefWindowProc@window_traits_a@windowing@window_base@@SAJPAUHWND__@@IIJ@Z
	?WndGetWindowLongPtr@window_traits_a@windowing@window_base@@SAJPAUHWND__@@H@Z
	?WndSetWindowLongPtr@window_traits_a@windowing@window_base@@SAJPAUHWND__@@HJ@Z
	?WndSetWindowsHookEx@window_traits_w@windowing@window_base@@SAPAUHHOOK__@@HP6GJHIJ@ZPAUHINSTANCE__@@K@Z
	?WndDefWindowProc@window_traits_w@windowing@window_base@@SAJPAUHWND__@@IIJ@Z
	?WndGetWindowLongPtr@window_traits_w@windowing@window_base@@SAJPAUHWND__@@H@Z
	?WndSetWindowLongPtr@window_traits_w@windowing@window_base@@SAJPAUHWND__@@HJ@Z
	?is_windowbase_window@window_base_common@windowing@window_base@@SA_NPAUHWND__@@@Z
	?get_handle@window_base_common@windowing@window_base@@QBEPAUHWND__@@XZ
	?get_instance@window_base_common@windowing@window_base@@QBEPAUHINSTANCE__@@XZ
	?get_thread_id@window_base_common@windowing@window_base@@QBEIXZ
	?get_dpi@window_base_common@windowing@window_base@@QBEIXZ
	?get_scale@window_base_common@windowing@window_base@@QBEMXZ
	?get_dpi_awareness@window_base_common@windowing@window_base@@QBE?AW4dpi_awareness@3@XZ
	?get_dpi_hosting_behaviour@window_base_common@windowing@window_base@@QBE?AW4dpi_hosting_behaviour@3@XZ
	?is_window_rtl@window_base_common@windowing@window_base@@QBE_NXZ
	?is_window_unicode@window_base_common@windowing@window_base@@QBE_NXZ
	?is_active@window_base_common@windowing@window_base@@QBE_NXZ
	?is_visible@window_base_common@windowing@window_base@@QBE_NXZ
	?is_enabled@window_base_common@windowing@window_base@@QBE_NXZ
	?is_minimised@window_base_common@windowing@window_base@@QBE_NXZ
	?is_maximised@window_base_common@windowing@window_base@@QBE_NXZ
	?is_arranged@window_base_common@windowing@window_base@@QBE_NXZ
	?show_window_cmd@window_base_common@windowing@window_base@@QAE_NH@Z
	?show_window_default@window_base_common@windowing@window_base@@QAE_NXZ
	?show_window@window_base_common@windowing@window_base@@QAE_N_N@Z
	?show_window_minimised@window_base_common@windowing@window_base@@QAE_N_N@Z
	?show_window_maximised@window_base_common@windowing@window_base@@QAE_NXZ
	?minimise_window@window_base_common@windowing@window_base@@QAE_NXZ
	?maximise_window@window_base_common@windowing@window_base@@QAE_NXZ
	?restore_window@window_base_common@windowing@window_base@@QAE_NXZ
	?hide_window@window_base_common@windowing@window_base@@QAE_NXZ
	?enable_window@window_base_common@windowing@window_base@@QAE_NXZ
	?disable_window@window_base_common@windowing@window_base@@QAE_NXZ
	?update_window@window_base_common@windowing@window_base@@QAEXXZ
	?redraw_window@window_base_common@windowing@window_base@@QAEXV?$optional@UtagRECT@@@std@@PAUHRGN__@@W4redraw_window_flags@23@@Z
	?get_parent@window_base_common@windowing@window_base@@QBEPAUHWND__@@XZ
	?get_size@window_base_common@windowing@window_base@@QBE?AUtagSIZE@@XZ
	?get_client_size@window_base_common@windowing@window_base@@QBE?AUtagSIZE@@XZ
	?get_position@window_base_common@windowing@window_base@@QBE?AUtagPOINT@@XZ
	?set_size@window_base_common@windowing@window_base@@QAEXABUtagSIZE@@@Z
	?set_client_size@window_base_common@windowing@window_base@@QAEXABUtagSIZE@@@Z
	?set_position@window_base_common@windowing@window_base@@QAEXABUtagPOINT@@@Z
	?set_size_position@window_base_common@windowing@window_base@@QAEXABUtagPOINT@@ABUtagSIZE@@@Z
	?set_z_order_top@window_base_common@windowing@window_base@@QAEXXZ
	?set_z_order_bottom@window_base_common@windowing@window_base@@QAEXXZ
	?set_z_order_after@window_base_common@windowing@window_base@@QAEXPAUHWND__@@@Z
	?register_power_notification@window_base_common@windowing@window_base@@QAEXW4power_notify_type@23@@Z
	?unregister_power_notification@window_base_common@windowing@window_base@@QAEXW4power_notify_type@23@@Z
	?get_register_interface@window_base_common@windowing@window_base@@QBEAAUregister_callback@23@XZ
	?notify_window_close@window_base_common@windowing@window_base@@IAEXXZ
	?set_dpi@window_base_common@windowing@window_base@@IAEXI@Z
	?has_associated_window@window_base_common@windowing@window_base@@IBE_NXZ
	?is_window_destroying@window_base_common@windowing@window_base@@IBE_NXZ
	?set_destroying_window@window_base_common@windowing@window_base@@IBE_NXZ
	?set_destroying_class@window_base_common@windowing@window_base@@IBE_NXZ
	?raw_inst_from_handle@window_base_common@windowing@window_base@@KAPAXPAUHWND__@@@Z
	?set_window_aumid_from_process_aumid@window_base_a@windowing@window_base@@QAEXXZ
	?set_window_aumid@window_base_a@windowing@window_base@@QAEXABV?$basic_string_view@DU?$char_traits@D@std@@@std@@@Z
	?get_window_aumid@window_base_a@windowing@window_base@@QBE?AV?$basic_string@DU?$char_traits@D@std@@V?$allocator@D@2@@std@@XZ
	?window_has_aumid@window_base_a@windowing@window_base@@QBE_NXZ
	??0window_base_a@windowing@window_base@@IAE@PAUHINSTANCE__@@@Z
	??1window_base_a@windowing@window_base@@IAE@XZ
	?set_window_info@window_base_a@windowing@window_base@@IAEXPAUHWND__@@IPAX@Z
	?cleanup_window_info@window_base_a@windowing@window_base@@IAEXXZ
	?create_window@window_base_a@windowing@window_base@@KAPAUHWND__@@IIABV?$basic_string_view@DU?$char_traits@D@std@@@std@@0ABUtagPOINT@@ABUtagSIZE@@PAU4@PAUHMENU__@@PAV123@@Z
	?set_window_aumid_from_process_aumid@window_base_w@windowing@window_base@@QAEXXZ
	?set_window_aumid@window_base_w@windowing@window_base@@QAEXABV?$basic_string_view@_WU?$char_traits@_W@std@@@std@@@Z
	?get_window_aumid@window_base_w@windowing@window_base@@QBE?AV?$basic_string@_WU?$char_traits@_W@std@@V?$allocator@_W@2@@std@@XZ
	?window_has_aumid@window_base_w@windowing@window_base@@QBE_NXZ
	??0window_base_w@windowing@window_base@@IAE@PAUHINSTANCE__@@@Z
	??1window_base_w@windowing@window_base@@IAE@XZ
	?set_window_info@window_base_w@windowing@window_base@@IAEXPAUHWND__@@IPAX@Z
	?cleanup_window_info@window_base_w@windowing@window_base@@IAEXXZ
	?create_window@window_base_w@windowing@window_base@@KAPAUHWND__@@IIABV?$basic_string_view@_WU?$char_traits@_W@std@@@std@@0ABUtagPOINT@@ABUtagSIZE@@PAU4@PAUHMENU__@@PAV123@@Z

	?is_debugger_present@debug@output_helpers@window_base@@YA_NXZ
	?output_debug_string@debug@output_helpers@window_base@@YAXPBD@Z
	?output_debug_string@debug@output_helpers@window_base@@YAXPB_W@Z

	??1application_thread@application@window_base@@QAE@XZ
	??0application_thread@application@window_base@@QAE@ABV012@@Z
	??0application_thread@application@window_base@@QAE@$$QAV012@@Z
	??4application_thread@application@window_base@@QAEAAV012@ABV012@@Z
	??4application_thread@application@window_base@@QAEAAV012@$$QAV012@@Z
	?set_dpi_awareness@application_thread@application@window_base@@QAE?AW4dpi_awareness@3@W443@@Z
	?get_dpi_awareness@application_thread@application@window_base@@QAE?AW4dpi_awareness@3@XZ
	?set_dpi_hosting_behaviour@application_thread@application@window_base@@QAE?AW4dpi_hosting_behaviour@3@W443@@Z
	?get_dpi_hosting_behaviour@application_thread@application@window_base@@QAE?AW4dpi_hosting_behaviour@3@XZ
	?set_cursor_creation_scaling@application_thread@application@window_base@@QAEII@Z
	?get_thread_id@application_thread@application@window_base@@QBEIXZ
	?is_current_thread@application_thread@application@window_base@@QBE_NXZ
	?set_message_pump_to_ansi@application_thread@application@window_base@@QAEXXZ
	?set_message_pump_to_unicode@application_thread@application@window_base@@QAEXXZ
	?is_message_pump_ansi@application_thread@application@window_base@@QBE_NXZ
	?is_message_pump_unicode@application_thread@application@window_base@@QBE_NXZ
	?run_message_pump@application_thread@application@window_base@@QBEHXZ
	?run_game_message_pump@application_thread@application@window_base@@QBEHXZ
	?clear_message_queue@application_thread@application@window_base@@QBEXXZ
	?exit_message_pump@application_thread@application@window_base@@QBEXH@Z
	?add_pump_callback@application_thread@application@window_base@@QAEIVpump_callback_wrapper@23@@Z
	?clear_pump_callbacks@application_thread@application@window_base@@QAEXXZ
	?remove_pump_callback@application_thread@application@window_base@@QAEXI@Z
	?add_pump_work_callback@application_thread@application@window_base@@QAEXVwork_callback_wrapper@23@@Z
	?remove_pump_work_callback@application_thread@application@window_base@@QAEXXZ

	??0application_singleton@application@window_base@@QAE@XZ
	??1application_singleton@application@window_base@@QAE@XZ
	??0application_singleton@application@window_base@@QAE@ABV012@@Z
	??0application_singleton@application@window_base@@QAE@$$QAV012@@Z
	??4application_singleton@application@window_base@@QAEAAV012@ABV012@@Z
	??4application_singleton@application@window_base@@QAEAAV012@$$QAV012@@Z
	?post_exit_message_to_thread@application_singleton@application@window_base@@SAXIH@Z
	?try_get_current_instance@application_singleton@application@window_base@@SA?AV?$optional@Vapplication_singleton@application@window_base@@@std@@XZ
	?make_thread_gui@application_singleton@application@window_base@@SAXXZ
	?set_explicit_app_user_model_id@application_singleton@application@window_base@@SAXABV?$basic_string_view@_WU?$char_traits@_W@std@@@std@@@Z
	?get_explicit_app_user_model_id@application_singleton@application@window_base@@SA?AV?$basic_string@_WU?$char_traits@_W@std@@V?$allocator@_W@2@@std@@XZ
	?process_has_explicit_app_user_model_id@application_singleton@application@window_base@@SA_NXZ
	?enable_mouse_in_pointer@application_singleton@application@window_base@@SAXXZ
	?is_mouse_in_pointer_enabled@application_singleton@application@window_base@@SA_NXZ
	?get_dpi_awareness@application_singleton@application@window_base@@QAE?AW4dpi_awareness@3@XZ
	?get_application_thread_id@application_singleton@application@window_base@@QBEIXZ
	?get_for_thread@application_singleton@application@window_base@@QBE?AVapplication_thread@23@XZ
	?is_main_thread@application_singleton@application@window_base@@QBE_NXZ
	?is_ui_thread@application_singleton@application@window_base@@QBE_NI@Z
	?did_initialisation_fail@application_singleton@application@window_base@@QBE_NXZ
	?get_failure_information@application_singleton@application@window_base@@QBE?AUinit_failure_information@23@XZ

	?is_application_packaged@application@window_base@@YA_NXZ
	?application_has_external_location@application@window_base@@YA_NXZ
	?application_path@application@window_base@@YA?AVpath@filesystem@std@@XZ
	?application_package_path@application@window_base@@YA?AVpath@filesystem@std@@XZ
	?application_external_content_path@application@window_base@@YA?AVpath@filesystem@std@@XZ
	?application_package_full_name@application@window_base@@YA?AV?$basic_string@_WU?$char_traits@_W@std@@V?$allocator@_W@2@@std@@XZ
	?application_package_family_name@application@window_base@@YA?AV?$basic_string@_WU?$char_traits@_W@std@@V?$allocator@_W@2@@std@@XZ
	?application_app_container@application@window_base@@YA_NXZ
	?application_package_app_aumid@application@window_base@@YA?AV?$basic_string@_WU?$char_traits@_W@std@@V?$allocator@_W@2@@std@@XZ
	?application_package_app_aumid@application@window_base@@YA?AV?$basic_string@_WU?$char_traits@_W@std@@V?$allocator@_W@2@@std@@I@Z
	?application_package_get_applist_count@application@window_base@@YAIXZ

	?is_windows_10_or_greater@helper@application@window_base@@YA_NXZ
	?is_windows_11_or_greater@helper@application@window_base@@YA_NXZ
	?get_windows_10_build@helper@application@window_base@@YAIXZ
	?is_at_least_windows_10_build@helper@application@window_base@@YA_NI@Z
	?is_windows_10_build@helper@application@window_base@@YA_NI@Z
	?is_build_win10_range@helper@application@window_base@@YA_NI@Z
	?is_build_known_win11_range@helper@application@window_base@@YA_NI@Z

	??0apartment@application@window_base@@QAE@Uwinrt_t@12@@Z
	??0apartment@application@window_base@@QAE@Uwinrt_t@12@Usta_t@12@@Z
	??0apartment@application@window_base@@QAE@Ucom_t@12@@Z
	??0apartment@application@window_base@@QAE@Ucom_t@12@Usta_t@12@@Z
	??0apartment@application@window_base@@QAE@Uole_t@12@@Z
	??1apartment@application@window_base@@QAE@XZ
	?increment_implicit_mta@apartment@application@window_base@@QAEXXZ
	?decrement_implicit_mta@apartment@application@window_base@@QAEXXZ
	?outstanding_mta_count@apartment@application@window_base@@QBEIXZ
	?init_failure_code@apartment@application@window_base@@QBEIXZ
	?is_aparmtent_init@apartment@application@window_base@@SA_NXZ
	?is_sta_apartment@apartment@application@window_base@@SA_NXZ
	?is_nta_apartment@apartment@application@window_base@@SA_NXZ
	?is_implicit_mta@apartment@application@window_base@@SA_NXZ
	?is_winrt_apartment@apartment@application@window_base@@QBE_NXZ
	?is_ole_apartment@apartment@application@window_base@@QBE_NXZ
